; Function Attrs: nounwind uwtable
define range(i32 -48, 1) i32 @ARKodeSetEpsLin(ptr noundef %0, double noundef %1) local_unnamed_addr #0 {
  %3 = icmp eq ptr %0, null
  br i1 %3, label %4, label %5

4:                                                ; preds = %2
  tail call void (ptr, i32, i32, ptr, ptr, ptr, ...) @arkProcessError(ptr noundef null, i32 noundef -21, i32 noundef 663, ptr noundef nonnull @__func__.ARKodeSetEpsLin, ptr noundef nonnull @.str, ptr noundef nonnull @.str.1) #13
  br label %18

5:                                                ; preds = %2
  %6 = getelementptr inbounds nuw i8, ptr %0, i64 296
  %7 = load i32, ptr %6, align 8, !tbaa !3
  %.not = icmp eq i32 %7, 0
  br i1 %.not, label %8, label %9

8:                                                ; preds = %5
  tail call void (ptr, i32, i32, ptr, ptr, ptr, ...) @arkProcessError(ptr noundef nonnull %0, i32 noundef -48, i32 noundef 672, ptr noundef nonnull @__func__.ARKodeSetEpsLin, ptr noundef nonnull @.str, ptr noundef nonnull @.str.2) #13
  br label %18

9:                                                ; preds = %5
  %10 = getelementptr inbounds nuw i8, ptr %0, i64 320
  %11 = load ptr, ptr %10, align 8, !tbaa !33
  %12 = tail call ptr %11(ptr noundef nonnull %0) #13
  %13 = icmp eq ptr %12, null
  br i1 %13, label %arkLs_AccessLMem.exit, label %14

arkLs_AccessLMem.exit:                            ; preds = %9
  tail call void (ptr, i32, i32, ptr, ptr, ptr, ...) @arkProcessError(ptr noundef nonnull %0, i32 noundef -2, i32 noundef 4072, ptr noundef nonnull @__func__.ARKodeSetEpsLin, ptr noundef nonnull @.str, ptr noundef nonnull @.str.64) #13
  br label %18

14:                                               ; preds = %9
  %15 = fcmp ole double %1, 0.000000e+00
  %16 = select i1 %15, double 5.000000e-02, double %1
  %17 = getelementptr inbounds nuw i8, ptr %12, i64 40
  store double %16, ptr %17, align 8, !tbaa !57
  br label %18

18:                                               ; preds = %arkLs_AccessLMem.exit, %14, %8, %4
  %.0 = phi i32 [ -21, %4 ], [ 0, %14 ], [ -48, %8 ], [ -2, %arkLs_AccessLMem.exit ]
  ret i32 %.0
}